target datalayout = "e-m:e-p270:32:32-p271:32:32-p272:64:64-i64:64-i128:128-f80:128-n8:16:32:64-S128"
target triple = "x86_64-pc-linux-gnu"

%struct.H5FL_reg_head_t = type { i8, i32, i32, ptr, i64, ptr }
%struct.H5MF_free_section_t = type { %struct.H5FS_section_info_t }
%struct.H5FS_section_info_t = type { i64, i64, i32, i32 }
%struct.H5MF_sect_ud_t = type { ptr, i32, i8, i8, i32, ptr }
%struct.H5F_t = type { ptr, ptr, ptr, ptr, i32, ptr, i8, i8, ptr, i32 }
%struct.H5F_shared_t = type { ptr, ptr, ptr, i8, i32, i32, %struct.H5F_mtab_t, ptr, i8, i8, i64, i32, i32, i64, i64, ptr, ptr, %struct.H5AC_cache_config_t, %struct.H5AC_cache_image_config_t, i8, i8, ptr, i64, i32, i8, i64, i64, double, i64, i64, i64, i32, i32, i32, i8, i32, ptr, ptr, ptr, ptr, i8, i8, i8, i64, i64, ptr, ptr, i32, i64, i8, i32, i8, i64, i8, [13 x i32], [13 x i64], [13 x ptr], i8, i64, i64, [7 x i32], [7 x i32], %struct.H5F_blk_aggr_t, %struct.H5F_blk_aggr_t, i64, i64, %struct.H5F_meta_accum_t, i32, i32, [30 x ptr], %struct.H5F_object_flush_t, i8, ptr }
%struct.H5F_mtab_t = type { i32, i32, ptr }
%struct.H5AC_cache_config_t = type { i32, i8, i8, i8, [1025 x i8], i8, i8, i64, double, i64, i64, i64, i32, double, double, i8, i64, i32, double, double, i32, double, double, i8, i64, i32, i8, double, i64, i32 }
%struct.H5AC_cache_image_config_t = type { i32, i8, i8, i32 }
%struct.H5F_blk_aggr_t = type { i64, i64, i64, i64, i64 }
%struct.H5F_meta_accum_t = type { ptr, i64, i64, i64, i64, i64, i8 }
%struct.H5F_object_flush_t = type { ptr, ptr }

@H5_H5MF_free_section_t_reg_free_list = internal global %struct.H5FL_reg_head_t { i8 0, i32 0, i32 0, ptr @.str.2, i64 24, ptr null }, align 8
@.str = private unnamed_addr constant [105 x i8] c"generated/home/dtcxzyw/WorkSpace/Projects/compilers/llvm-opt-benchmark/bench/hdf5/hdf5/src/H5MFsection.c\00", align 1
@H5E_RESOURCE_g = external global i64, align 8
@H5E_CANTRELEASE_g = external global i64, align 8
@H5E_CANTFREE_g = external global i64, align 8
@.str.7 = private unnamed_addr constant [27 x i8] c"driver free request failed\00", align 1
@.str.9 = private unnamed_addr constant [31 x i8] c"can't free simple section node\00", align 1
@__func__.H5MF__sect_large_shrink = private unnamed_addr constant [24 x i8] c"H5MF__sect_large_shrink\00", align 1

; Function Attrs: nounwind uwtable
define i32 @H5MF__sect_free(ptr noundef %0) #0 {
  %2 = alloca ptr, align 8
  %3 = alloca ptr, align 8
  store ptr %0, ptr %2, align 8
  %4 = load ptr, ptr %2, align 8
  store ptr %4, ptr %3, align 8
  %5 = load ptr, ptr %3, align 8
  %6 = call ptr @H5FL_reg_free(ptr noundef @H5_H5MF_free_section_t_reg_free_list, ptr noundef %5)
  store ptr %6, ptr %3, align 8
  ret i32 0
}

; Function Attrs: nounwind uwtable
define internal i32 @H5MF__sect_large_shrink(ptr noundef %0, ptr noundef %1) #0 {
  %3 = alloca ptr, align 8
  %4 = alloca ptr, align 8
  %5 = alloca ptr, align 8
  %6 = alloca ptr, align 8
  %7 = alloca i64, align 8
  %8 = alloca i32, align 4
  %9 = alloca i8, align 1
  %10 = alloca i64, align 8
  store ptr %0, ptr %3, align 8
  store ptr %1, ptr %4, align 8
  %11 = load ptr, ptr %3, align 8
  store ptr %11, ptr %5, align 8
  %12 = load ptr, ptr %4, align 8
  store ptr %12, ptr %6, align 8
  store i64 0, ptr %7, align 8
  store i32 0, ptr %8, align 4
  store i8 0, ptr %9, align 1
  br label %13

13:                                               ; preds = %2
  %14 = load ptr, ptr %5, align 8
  %15 = load ptr, ptr %14, align 8
  %16 = getelementptr inbounds %struct.H5MF_free_section_t, ptr %15, i32 0, i32 0
  %17 = getelementptr inbounds %struct.H5FS_section_info_t, ptr %16, i32 0, i32 0
  %18 = load i64, ptr %17, align 8
  %19 = icmp ne i64 %18, -1
  br i1 %19, label %20, label %57

20:                                               ; preds = %13
  %21 = load ptr, ptr %5, align 8
  %22 = load ptr, ptr %21, align 8
  %23 = getelementptr inbounds %struct.H5MF_free_section_t, ptr %22, i32 0, i32 0
  %24 = getelementptr inbounds %struct.H5FS_section_info_t, ptr %23, i32 0, i32 0
  %25 = load i64, ptr %24, align 8
  %26 = icmp ugt i64 %25, 0
  br i1 %26, label %27, label %57

27:                                               ; preds = %20
  %28 = load ptr, ptr %5, align 8
  %29 = load ptr, ptr %28, align 8
  %30 = getelementptr inbounds %struct.H5MF_free_section_t, ptr %29, i32 0, i32 0
  %31 = getelementptr inbounds %struct.H5FS_section_info_t, ptr %30, i32 0, i32 0
  %32 = load i64, ptr %31, align 8
  %33 = load ptr, ptr %6, align 8
  %34 = getelementptr inbounds %struct.H5MF_sect_ud_t, ptr %33, i32 0, i32 0
  %35 = load ptr, ptr %34, align 8
  %36 = call i64 @H5F_get_base_addr(ptr noundef %35)
  %37 = add i64 %32, %36
  %38 = load ptr, ptr %6, align 8
  %39 = getelementptr inbounds %struct.H5MF_sect_ud_t, ptr %38, i32 0, i32 0
  %40 = load ptr, ptr %39, align 8
  %41 = getelementptr inbounds %struct.H5F_t, ptr %40, i32 0, i32 2
  %42 = load ptr, ptr %41, align 8
  %43 = getelementptr inbounds %struct.H5F_shared_t, ptr %42, i32 0, i32 64
  %44 = load i64, ptr %43, align 8
  %45 = urem i64 %37, %44
  store i64 %45, ptr %10, align 8
  %46 = icmp ne i64 %45, 0
  br i1 %46, label %47, label %57

47:                                               ; preds = %27
  %48 = load ptr, ptr %6, align 8
  %49 = getelementptr inbounds %struct.H5MF_sect_ud_t, ptr %48, i32 0, i32 0
  %50 = load ptr, ptr %49, align 8
  %51 = getelementptr inbounds %struct.H5F_t, ptr %50, i32 0, i32 2
  %52 = load ptr, ptr %51, align 8
  %53 = getelementptr inbounds %struct.H5F_shared_t, ptr %52, i32 0, i32 64
  %54 = load i64, ptr %53, align 8
  %55 = load i64, ptr %10, align 8
  %56 = sub i64 %54, %55
  store i64 %56, ptr %7, align 8
  br label %58

57:                                               ; preds = %27, %20, %13
  store i64 0, ptr %7, align 8
  br label %58

58:                                               ; preds = %57, %47
  br label %59

59:                                               ; preds = %58
  %60 = load ptr, ptr %6, align 8
  %61 = getelementptr inbounds %struct.H5MF_sect_ud_t, ptr %60, i32 0, i32 0
  %62 = load ptr, ptr %61, align 8
  %63 = load ptr, ptr %6, align 8
  %64 = getelementptr inbounds %struct.H5MF_sect_ud_t, ptr %63, i32 0, i32 1
  %65 = load i32, ptr %64, align 8
  %66 = load ptr, ptr %5, align 8
  %67 = load ptr, ptr %66, align 8
  %68 = getelementptr inbounds %struct.H5MF_free_section_t, ptr %67, i32 0, i32 0
  %69 = getelementptr inbounds %struct.H5FS_section_info_t, ptr %68, i32 0, i32 0
  %70 = load i64, ptr %69, align 8
  %71 = load i64, ptr %7, align 8
  %72 = add i64 %70, %71
  %73 = load ptr, ptr %5, align 8
  %74 = load ptr, ptr %73, align 8
  %75 = getelementptr inbounds %struct.H5MF_free_section_t, ptr %74, i32 0, i32 0
  %76 = getelementptr inbounds %struct.H5FS_section_info_t, ptr %75, i32 0, i32 1
  %77 = load i64, ptr %76, align 8
  %78 = load i64, ptr %7, align 8
  %79 = sub i64 %77, %78
  %80 = call i32 @H5F__free(ptr noundef %62, i32 noundef %65, i64 noundef %72, i64 noundef %79)
  %81 = icmp slt i32 %80, 0
  br i1 %81, label %82, label %97

82:                                               ; preds = %59
  br label %83

83:                                               ; preds = %82
  br label %84

84:                                               ; preds = %83
  br label %85

85:                                               ; preds = %84
  %86 = load i64, ptr @H5E_RESOURCE_g, align 8
  %87 = load i64, ptr @H5E_CANTFREE_g, align 8
  %88 = call i32 (ptr, ptr, i32, i64, i64, ptr, ...) @H5E_printf_stack(ptr noundef @.str, ptr noundef @__func__.H5MF__sect_large_shrink, i32 noundef 909, i64 noundef %86, i64 noundef %87, ptr noundef @.str.7)
  br label %89

89:                                               ; preds = %85
  store i8 1, ptr %9, align 1
  %90 = load i8, ptr %9, align 1
  %91 = trunc i8 %90 to i1
  %92 = zext i1 %91 to i8
  store i8 %92, ptr %9, align 1
  br label %93

93:                                               ; preds = %89
  br label %94

94:                                               ; preds = %93
  store i32 -1, ptr %8, align 4
  br label %129

95:                                               ; No predecessors!
  br label %96

96:                                               ; preds = %95
  br label %97

97:                                               ; preds = %96, %59
  %98 = load i64, ptr %7, align 8
  %99 = icmp ne i64 %98, 0
  br i1 %99, label %100, label %106

100:                                              ; preds = %97
  %101 = load i64, ptr %7, align 8
  %102 = load ptr, ptr %5, align 8
  %103 = load ptr, ptr %102, align 8
  %104 = getelementptr inbounds %struct.H5MF_free_section_t, ptr %103, i32 0, i32 0
  %105 = getelementptr inbounds %struct.H5FS_section_info_t, ptr %104, i32 0, i32 1
  store i64 %101, ptr %105, align 8
  br label %128

106:                                              ; preds = %97
  %107 = load ptr, ptr %5, align 8
  %108 = load ptr, ptr %107, align 8
  %109 = call i32 @H5MF__sect_free(ptr noundef %108)
  %110 = icmp slt i32 %109, 0
  br i1 %110, label %111, label %126

111:                                              ; preds = %106
  br label %112

112:                                              ; preds = %111
  br label %113

113:                                              ; preds = %112
  br label %114

114:                                              ; preds = %113
  %115 = load i64, ptr @H5E_RESOURCE_g, align 8
  %116 = load i64, ptr @H5E_CANTRELEASE_g, align 8
  %117 = call i32 (ptr, ptr, i32, i64, i64, ptr, ...) @H5E_printf_stack(ptr noundef @.str, ptr noundef @__func__.H5MF__sect_large_shrink, i32 noundef 916, i64 noundef %115, i64 noundef %116, ptr noundef @.str.9)
  br label %118

118:                                              ; preds = %114
  store i8 1, ptr %9, align 1
  %119 = load i8, ptr %9, align 1
  %120 = trunc i8 %119 to i1
  %121 = zext i1 %120 to i8
  store i8 %121, ptr %9, align 1
  br label %122

122:                                              ; preds = %118
  br label %123

123:                                              ; preds = %122
  store i32 -1, ptr %8, align 4
  br label %129

124:                                              ; No predecessors!
  br label %125

125:                                              ; preds = %124
  br label %126

126:                                              ; preds = %125, %106
  %127 = load ptr, ptr %5, align 8
  store ptr null, ptr %127, align 8
  br label %128

128:                                              ; preds = %126, %100
  br label %129

129:                                              ; preds = %128, %123, %94
  %130 = load i32, ptr %8, align 4
  ret i32 %130
}